; Function Attrs: nounwind uwtable
define internal void @my_EndElementHandler(ptr noundef captures(none) %0, ptr noundef %1) #0 {
  %3 = getelementptr i8, ptr %0, i64 72
  %.val = load ptr, ptr %3, align 8, !tbaa !36
  %4 = getelementptr i8, ptr %.val, i64 8
  %5 = load ptr, ptr %4, align 8, !tbaa !14
  %.not32 = icmp eq ptr %5, null
  br i1 %.not32, label %Py_DECREF.exit, label %6

6:                                                ; preds = %2
  %7 = tail call ptr @PyErr_Occurred() #8
  %.not17 = icmp eq ptr %7, null
  br i1 %.not17, label %8, label %Py_DECREF.exit

8:                                                ; preds = %6
  %9 = getelementptr inbounds nuw i8, ptr %0, i64 40
  %10 = load ptr, ptr %9, align 8, !tbaa !29
  %11 = icmp eq ptr %10, null
  br i1 %11, label %flush_character_buffer.exit.thread, label %12

12:                                               ; preds = %8
  %13 = getelementptr inbounds nuw i8, ptr %0, i64 52
  %14 = load i32, ptr %13, align 4, !tbaa !35
  %15 = icmp eq i32 %14, 0
  br i1 %15, label %flush_character_buffer.exit.thread, label %flush_character_buffer.exit

flush_character_buffer.exit:                      ; preds = %12
  %16 = tail call fastcc i32 @call_character_handler(ptr noundef nonnull %0, ptr noundef nonnull %10, i32 noundef %14)
  store i32 0, ptr %13, align 4, !tbaa !35
  %17 = icmp slt i32 %16, 0
  br i1 %17, label %Py_DECREF.exit, label %flush_character_buffer.exit.thread

flush_character_buffer.exit.thread:               ; preds = %8, %12, %flush_character_buffer.exit
  %18 = tail call fastcc ptr @string_intern(ptr noundef nonnull %0, ptr noundef %1)
  %19 = tail call ptr (ptr, ...) @Py_BuildValue(ptr noundef nonnull @.str.44, ptr noundef %18) #8
  %.not18 = icmp eq ptr %19, null
  br i1 %.not18, label %20, label %43

20:                                               ; preds = %flush_character_buffer.exit.thread
  %21 = load ptr, ptr @handler_info, align 16, !tbaa !40
  %.not15.i.i = icmp eq ptr %21, null
  br i1 %.not15.i.i, label %flag_error.exit, label %.lr.ph.i.i

.lr.ph.i.i:                                       ; preds = %20
  %22 = getelementptr inbounds nuw i8, ptr %0, i64 16
  br label %.lr.ph.split.us.i.i

.lr.ph.split.us.i.i:                              ; preds = %Py_DECREF.exit.us.i.i, %.lr.ph.i.i
  %23 = phi ptr [ %39, %Py_DECREF.exit.us.i.i ], [ @handler_info, %.lr.ph.i.i ]
  %24 = phi i64 [ %38, %Py_DECREF.exit.us.i.i ], [ 0, %.lr.ph.i.i ]
  %.016.us.i.i = phi i32 [ %37, %Py_DECREF.exit.us.i.i ], [ 0, %.lr.ph.i.i ]
  %25 = load ptr, ptr %3, align 8, !tbaa !36
  %26 = getelementptr ptr, ptr %25, i64 %24
  %27 = load ptr, ptr %26, align 8, !tbaa !14
  %.not14.us.i.i = icmp eq ptr %27, null
  br i1 %.not14.us.i.i, label %Py_DECREF.exit.us.i.i, label %28

28:                                               ; preds = %.lr.ph.split.us.i.i
  store ptr null, ptr %26, align 8, !tbaa !14
  %29 = load i32, ptr %27, align 8, !tbaa !13
  %.not.i.us.i.i = icmp sgt i32 %29, -1
  br i1 %.not.i.us.i.i, label %30, label %Py_DECREF.exit.us.i.i

30:                                               ; preds = %28
  %31 = add nsw i32 %29, -1
  store i32 %31, ptr %27, align 8, !tbaa !13
  %32 = icmp eq i32 %31, 0
  br i1 %32, label %33, label %Py_DECREF.exit.us.i.i

33:                                               ; preds = %30
  tail call void @_Py_Dealloc(ptr noundef nonnull %27) #8
  br label %Py_DECREF.exit.us.i.i

Py_DECREF.exit.us.i.i:                            ; preds = %33, %30, %28, %.lr.ph.split.us.i.i
  %34 = getelementptr inbounds nuw i8, ptr %23, i64 8
  %35 = load ptr, ptr %34, align 8, !tbaa !56
  %36 = load ptr, ptr %22, align 8, !tbaa !39
  tail call void %35(ptr noundef %36, ptr noundef null) #8
  %37 = add i32 %.016.us.i.i, 1
  %38 = sext i32 %37 to i64
  %39 = getelementptr [64 x %struct.HandlerInfo], ptr @handler_info, i64 0, i64 %38
  %40 = load ptr, ptr %39, align 16, !tbaa !40
  %.not.us.i.i = icmp eq ptr %40, null
  br i1 %.not.us.i.i, label %flag_error.exit, label %.lr.ph.split.us.i.i, !llvm.loop !45

flag_error.exit:                                  ; preds = %Py_DECREF.exit.us.i.i, %20
  %41 = getelementptr inbounds nuw i8, ptr %0, i64 16
  %42 = load ptr, ptr %41, align 8, !tbaa !39
  tail call void @PyExpat_XML_SetExternalEntityRefHandler(ptr noundef %42, ptr noundef nonnull @error_external_entity_ref_handler) #8
  br label %Py_DECREF.exit

43:                                               ; preds = %flush_character_buffer.exit.thread
  %44 = getelementptr inbounds nuw i8, ptr %0, i64 32
  store i32 1, ptr %44, align 8, !tbaa !60
  %45 = load ptr, ptr %3, align 8, !tbaa !36
  %46 = getelementptr i8, ptr %45, i64 8
  %47 = load ptr, ptr %46, align 8, !tbaa !14
  %48 = tail call ptr @PyObject_Call(ptr noundef %47, ptr noundef nonnull %19, ptr noundef null) #8
  %49 = icmp eq ptr %48, null
  br i1 %49, label %50, label %call_with_frame.exit

50:                                               ; preds = %43
  tail call void @_PyTraceback_Add(ptr noundef nonnull @.str.45, ptr noundef nonnull @.str.43, i32 noundef 475) #8
  %51 = getelementptr inbounds nuw i8, ptr %0, i64 16
  %52 = load ptr, ptr %51, align 8, !tbaa !39
  %53 = tail call i32 @PyExpat_XML_StopParser(ptr noundef %52, i8 noundef zeroext 0) #8
  br label %call_with_frame.exit

call_with_frame.exit:                             ; preds = %43, %50
  store i32 0, ptr %44, align 8, !tbaa !60
  %54 = load i32, ptr %19, align 8, !tbaa !13
  %.not.i19 = icmp sgt i32 %54, -1
  br i1 %.not.i19, label %55, label %Py_DECREF.exit20

55:                                               ; preds = %call_with_frame.exit
  %56 = add nsw i32 %54, -1
  store i32 %56, ptr %19, align 8, !tbaa !13
  %57 = icmp eq i32 %56, 0
  br i1 %57, label %58, label %Py_DECREF.exit20

58:                                               ; preds = %55
  tail call void @_Py_Dealloc(ptr noundef nonnull %19) #8
  br label %Py_DECREF.exit20

Py_DECREF.exit20:                                 ; preds = %call_with_frame.exit, %55, %58
  br i1 %49, label %59, label %82

59:                                               ; preds = %Py_DECREF.exit20
  %60 = load ptr, ptr @handler_info, align 16, !tbaa !40
  %.not15.i.i22 = icmp eq ptr %60, null
  br i1 %.not15.i.i22, label %flag_error.exit30, label %.lr.ph.i.i23

.lr.ph.i.i23:                                     ; preds = %59
  %61 = getelementptr inbounds nuw i8, ptr %0, i64 16
  br label %.lr.ph.split.us.i.i24

.lr.ph.split.us.i.i24:                            ; preds = %Py_DECREF.exit.us.i.i28, %.lr.ph.i.i23
  %62 = phi ptr [ %78, %Py_DECREF.exit.us.i.i28 ], [ @handler_info, %.lr.ph.i.i23 ]
  %63 = phi i64 [ %77, %Py_DECREF.exit.us.i.i28 ], [ 0, %.lr.ph.i.i23 ]
  %.016.us.i.i25 = phi i32 [ %76, %Py_DECREF.exit.us.i.i28 ], [ 0, %.lr.ph.i.i23 ]
  %64 = load ptr, ptr %3, align 8, !tbaa !36
  %65 = getelementptr ptr, ptr %64, i64 %63
  %66 = load ptr, ptr %65, align 8, !tbaa !14
  %.not14.us.i.i26 = icmp eq ptr %66, null
  br i1 %.not14.us.i.i26, label %Py_DECREF.exit.us.i.i28, label %67

67:                                               ; preds = %.lr.ph.split.us.i.i24
  store ptr null, ptr %65, align 8, !tbaa !14
  %68 = load i32, ptr %66, align 8, !tbaa !13
  %.not.i.us.i.i27 = icmp sgt i32 %68, -1
  br i1 %.not.i.us.i.i27, label %69, label %Py_DECREF.exit.us.i.i28

69:                                               ; preds = %67
  %70 = add nsw i32 %68, -1
  store i32 %70, ptr %66, align 8, !tbaa !13
  %71 = icmp eq i32 %70, 0
  br i1 %71, label %72, label %Py_DECREF.exit.us.i.i28

72:                                               ; preds = %69
  tail call void @_Py_Dealloc(ptr noundef nonnull %66) #8
  br label %Py_DECREF.exit.us.i.i28

Py_DECREF.exit.us.i.i28:                          ; preds = %72, %69, %67, %.lr.ph.split.us.i.i24
  %73 = getelementptr inbounds nuw i8, ptr %62, i64 8
  %74 = load ptr, ptr %73, align 8, !tbaa !56
  %75 = load ptr, ptr %61, align 8, !tbaa !39
  tail call void %74(ptr noundef %75, ptr noundef null) #8
  %76 = add i32 %.016.us.i.i25, 1
  %77 = sext i32 %76 to i64
  %78 = getelementptr [64 x %struct.HandlerInfo], ptr @handler_info, i64 0, i64 %77
  %79 = load ptr, ptr %78, align 16, !tbaa !40
  %.not.us.i.i29 = icmp eq ptr %79, null
  br i1 %.not.us.i.i29, label %flag_error.exit30, label %.lr.ph.split.us.i.i24, !llvm.loop !45

flag_error.exit30:                                ; preds = %Py_DECREF.exit.us.i.i28, %59
  %80 = getelementptr inbounds nuw i8, ptr %0, i64 16
  %81 = load ptr, ptr %80, align 8, !tbaa !39
  tail call void @PyExpat_XML_SetExternalEntityRefHandler(ptr noundef %81, ptr noundef nonnull @error_external_entity_ref_handler) #8
  br label %Py_DECREF.exit

82:                                               ; preds = %Py_DECREF.exit20
  %83 = load i32, ptr %48, align 8, !tbaa !13
  %.not.i = icmp sgt i32 %83, -1
  br i1 %.not.i, label %84, label %Py_DECREF.exit

84:                                               ; preds = %82
  %85 = add nsw i32 %83, -1
  store i32 %85, ptr %48, align 8, !tbaa !13
  %86 = icmp eq i32 %85, 0
  br i1 %86, label %87, label %Py_DECREF.exit

87:                                               ; preds = %84
  tail call void @_Py_Dealloc(ptr noundef nonnull %48) #8
  br label %Py_DECREF.exit

Py_DECREF.exit:                                   ; preds = %87, %84, %82, %2, %flush_character_buffer.exit, %6, %flag_error.exit30, %flag_error.exit
  ret void
}